; Function Attrs: mustprogress nounwind willreturn uwtable
define void @Gia_StoComputeCutsConst0(ptr noundef readonly captures(none) %0, i32 noundef %1) local_unnamed_addr #5 {
  %3 = getelementptr i8, ptr %0, i64 40
  %.val = load ptr, ptr %3, align 8, !tbaa !33
  %4 = getelementptr i8, ptr %.val, i64 8
  %.val.val = load ptr, ptr %4, align 8, !tbaa !34
  %5 = sext i32 %1 to i64
  %6 = getelementptr inbounds %struct.Vec_Int_t_, ptr %.val.val, i64 %5
  %7 = getelementptr inbounds nuw i8, ptr %6, i64 4
  %8 = load i32, ptr %7, align 4, !tbaa !89
  %9 = load i32, ptr %6, align 8, !tbaa !90
  %10 = icmp eq i32 %8, %9
  br i1 %10, label %11, label %.Vec_IntGrow.exit10_crit_edge.i.i

.Vec_IntGrow.exit10_crit_edge.i.i:                ; preds = %2
  %.phi.trans.insert.i.i = getelementptr inbounds nuw i8, ptr %6, i64 8
  %.pre.i.i = load ptr, ptr %.phi.trans.insert.i.i, align 8, !tbaa !36
  br label %Vec_IntPush.exit.i

11:                                               ; preds = %2
  %12 = icmp slt i32 %8, 16
  br i1 %12, label %13, label %21

13:                                               ; preds = %11
  %14 = getelementptr inbounds nuw i8, ptr %6, i64 8
  %15 = load ptr, ptr %14, align 8, !tbaa !36
  %.not9.i.i.i = icmp eq ptr %15, null
  br i1 %.not9.i.i.i, label %18, label %16

16:                                               ; preds = %13
  %17 = tail call dereferenceable_or_null(64) ptr @realloc(ptr noundef nonnull %15, i64 noundef 64) #27
  br label %Vec_IntGrow.exit.i.i

18:                                               ; preds = %13
  %19 = tail call noalias dereferenceable_or_null(64) ptr @malloc(i64 noundef 64) #28
  br label %Vec_IntGrow.exit.i.i

Vec_IntGrow.exit.i.i:                             ; preds = %18, %16
  %20 = phi ptr [ %17, %16 ], [ %19, %18 ]
  store ptr %20, ptr %14, align 8, !tbaa !36
  store i32 16, ptr %6, align 8, !tbaa !90
  br label %Vec_IntPush.exit.i

21:                                               ; preds = %11
  %22 = shl nuw nsw i32 %8, 1
  %23 = getelementptr inbounds nuw i8, ptr %6, i64 8
  %24 = load ptr, ptr %23, align 8, !tbaa !36
  %.not9.i9.i.i = icmp eq ptr %24, null
  %25 = zext nneg i32 %22 to i64
  %26 = shl nuw nsw i64 %25, 2
  br i1 %.not9.i9.i.i, label %29, label %27

27:                                               ; preds = %21
  %28 = tail call ptr @realloc(ptr noundef nonnull %24, i64 noundef %26) #27
  br label %31

29:                                               ; preds = %21
  %30 = tail call noalias ptr @malloc(i64 noundef %26) #28
  br label %31

31:                                               ; preds = %29, %27
  %32 = phi ptr [ %28, %27 ], [ %30, %29 ]
  store ptr %32, ptr %23, align 8, !tbaa !36
  store i32 %22, ptr %6, align 8, !tbaa !90
  br label %Vec_IntPush.exit.i

Vec_IntPush.exit.i:                               ; preds = %31, %Vec_IntGrow.exit.i.i, %.Vec_IntGrow.exit10_crit_edge.i.i
  %33 = phi ptr [ %.pre.i.i, %.Vec_IntGrow.exit10_crit_edge.i.i ], [ %32, %31 ], [ %20, %Vec_IntGrow.exit.i.i ]
  %34 = load i32, ptr %7, align 4, !tbaa !89
  %35 = add nsw i32 %34, 1
  store i32 %35, ptr %7, align 4, !tbaa !89
  %36 = sext i32 %34 to i64
  %37 = getelementptr inbounds i32, ptr %33, i64 %36
  store i32 1, ptr %37, align 4, !tbaa !37
  %38 = load i32, ptr %7, align 4, !tbaa !89
  %39 = load i32, ptr %6, align 8, !tbaa !90
  %40 = icmp eq i32 %38, %39
  br i1 %40, label %Vec_IntPush.exit10.sink.split.i, label %Vec_IntPush.exit10.i

Vec_IntPush.exit10.sink.split.i:                  ; preds = %Vec_IntPush.exit.i
  %41 = icmp slt i32 %38, 16
  %42 = shl nuw nsw i32 %38, 1
  %43 = zext nneg i32 %42 to i64
  %44 = shl nuw nsw i64 %43, 2
  %.sink3 = select i1 %41, i64 64, i64 %44
  %.sink.i = select i1 %41, i32 16, i32 %42
  %45 = tail call ptr @realloc(ptr noundef nonnull %33, i64 noundef %.sink3) #27
  %46 = getelementptr inbounds nuw i8, ptr %6, i64 8
  store ptr %45, ptr %46, align 8, !tbaa !36
  store i32 %.sink.i, ptr %6, align 8, !tbaa !90
  %.pre = load i32, ptr %7, align 4, !tbaa !89
  br label %Vec_IntPush.exit10.i

Vec_IntPush.exit10.i:                             ; preds = %Vec_IntPush.exit10.sink.split.i, %Vec_IntPush.exit.i
  %47 = phi i32 [ %38, %Vec_IntPush.exit.i ], [ %.pre, %Vec_IntPush.exit10.sink.split.i ]
  %48 = phi ptr [ %33, %Vec_IntPush.exit.i ], [ %45, %Vec_IntPush.exit10.sink.split.i ]
  %49 = add nsw i32 %47, 1
  store i32 %49, ptr %7, align 4, !tbaa !89
  %50 = sext i32 %47 to i64
  %51 = getelementptr inbounds i32, ptr %48, i64 %50
  store i32 0, ptr %51, align 4, !tbaa !37
  %52 = load i32, ptr %7, align 4, !tbaa !89
  %53 = load i32, ptr %6, align 8, !tbaa !90
  %54 = icmp eq i32 %52, %53
  br i1 %54, label %Vec_IntPush.exit17.sink.split.i, label %Gia_CutAddZero.exit

Vec_IntPush.exit17.sink.split.i:                  ; preds = %Vec_IntPush.exit10.i
  %55 = icmp slt i32 %52, 16
  %56 = shl nuw nsw i32 %52, 1
  %57 = zext nneg i32 %56 to i64
  %58 = shl nuw nsw i64 %57, 2
  %.sink = select i1 %55, i64 64, i64 %58
  %.sink2.i = select i1 %55, i32 16, i32 %56
  %59 = tail call ptr @realloc(ptr noundef nonnull %48, i64 noundef %.sink) #27
  %60 = getelementptr inbounds nuw i8, ptr %6, i64 8
  store ptr %59, ptr %60, align 8, !tbaa !36
  store i32 %.sink2.i, ptr %6, align 8, !tbaa !90
  %.pre2 = load i32, ptr %7, align 4, !tbaa !89
  br label %Gia_CutAddZero.exit

Gia_CutAddZero.exit:                              ; preds = %Vec_IntPush.exit10.i, %Vec_IntPush.exit17.sink.split.i
  %61 = phi i32 [ %52, %Vec_IntPush.exit10.i ], [ %.pre2, %Vec_IntPush.exit17.sink.split.i ]
  %62 = phi ptr [ %48, %Vec_IntPush.exit10.i ], [ %59, %Vec_IntPush.exit17.sink.split.i ]
  %63 = add nsw i32 %61, 1
  store i32 %63, ptr %7, align 4, !tbaa !89
  %64 = sext i32 %61 to i64
  %65 = getelementptr inbounds i32, ptr %62, i64 %64
  store i32 0, ptr %65, align 4, !tbaa !37
  ret void
}